target datalayout = "e-m:e-p270:32:32-p271:32:32-p272:64:64-i64:64-i128:128-f80:128-n8:16:32:64-S128"
target triple = "x86_64-pc-linux-gnu"

; Function Attrs: nounwind uwtable
define internal i32 @code_to_mbclen(i32 noundef %0) #0 {
  %2 = alloca i32, align 4
  %3 = alloca i32, align 4
  store i32 %0, ptr %3, align 4, !tbaa !10
  %4 = load i32, ptr %3, align 4, !tbaa !10
  %5 = icmp ult i32 %4, 256
  br i1 %5, label %6, label %14

6:                                                ; preds = %1
  %7 = load i32, ptr %3, align 4, !tbaa !10
  %8 = sext i32 %7 to i64
  %9 = getelementptr inbounds [256 x i32], ptr @EncLen_SJIS, i64 0, i64 %8
  %10 = load i32, ptr %9, align 4, !tbaa !10
  %11 = icmp eq i32 %10, 1
  br i1 %11, label %12, label %13

12:                                               ; preds = %6
  store i32 1, ptr %2, align 4
  br label %29

13:                                               ; preds = %6
  br label %28

14:                                               ; preds = %1
  %15 = load i32, ptr %3, align 4, !tbaa !10
  %16 = icmp ult i32 %15, 65536
  br i1 %16, label %17, label %27

17:                                               ; preds = %14
  %18 = load i32, ptr %3, align 4, !tbaa !10
  %19 = lshr i32 %18, 8
  %20 = and i32 %19, 255
  %21 = sext i32 %20 to i64
  %22 = getelementptr inbounds [256 x i32], ptr @EncLen_SJIS, i64 0, i64 %21
  %23 = load i32, ptr %22, align 4, !tbaa !10
  %24 = icmp eq i32 %23, 2
  br i1 %24, label %25, label %26

25:                                               ; preds = %17
  store i32 2, ptr %2, align 4
  br label %29

26:                                               ; preds = %17
  br label %27

27:                                               ; preds = %26, %14
  br label %28

28:                                               ; preds = %27, %13
  store i32 -400, ptr %2, align 4
  br label %29

29:                                               ; preds = %28, %25, %12
  %30 = load i32, ptr %2, align 4
  ret i32 %30
}