; Function Attrs: mustprogress nofree norecurse nosync nounwind willreturn memory(none) uwtable
define internal range(i32 -400, 3) i32 @code_to_mbclen(i32 noundef %0) #3 {
  %2 = icmp ult i32 %0, 256
  br i1 %2, label %3, label %8

3:                                                ; preds = %1
  %4 = zext nneg i32 %0 to i64
  %5 = getelementptr inbounds nuw [256 x i32], ptr @EncLen_SJIS, i64 0, i64 %4
  %6 = load i32, ptr %5, align 4, !tbaa !7
  %7 = icmp eq i32 %6, 1
  br i1 %7, label %17, label %16

8:                                                ; preds = %1
  %9 = icmp ult i32 %0, 65536
  br i1 %9, label %10, label %16

10:                                               ; preds = %8
  %11 = lshr i32 %0, 8
  %12 = zext nneg i32 %11 to i64
  %13 = getelementptr inbounds nuw [256 x i32], ptr @EncLen_SJIS, i64 0, i64 %12
  %14 = load i32, ptr %13, align 4, !tbaa !7
  %15 = icmp eq i32 %14, 2
  br i1 %15, label %17, label %16

16:                                               ; preds = %8, %10, %3
  br label %17

17:                                               ; preds = %10, %3, %16
  %.0 = phi i32 [ -400, %16 ], [ 1, %3 ], [ 2, %10 ]
  ret i32 %.0
}